target datalayout = "e-m:e-p270:32:32-p271:32:32-p272:64:64-i64:64-i128:128-f80:128-n8:16:32:64-S128"
target triple = "x86_64-pc-linux-gnu"

%struct._object = type { %union.anon, ptr }
%union.anon = type { i64 }
%struct._ts = type { ptr, ptr, ptr, i64, %struct.anon.805, i32, i32, i32, i32, i32, i32, i32, i32, ptr, ptr, ptr, ptr, ptr, ptr, ptr, ptr, i32, ptr, i64, i64, ptr, i64, i32, ptr, ptr, ptr, i64, i64, ptr, ptr, ptr, %struct._err_stackitem, ptr, i64, ptr, ptr }
%struct.anon.805 = type { i32 }
%struct._err_stackitem = type { ptr, ptr }
%struct.PyDescrObject = type { %struct._object, ptr, ptr, ptr }
%struct.PyMethodDescrObject = type { %struct.PyDescrObject, ptr, ptr }
%struct.PyMethodDef = type { ptr, ptr, i32, ptr }

@_Py_tss_tstate = external thread_local global ptr, align 8
@.str.42 = private unnamed_addr constant [31 x i8] c" while calling a Python object\00", align 1

; Function Attrs: inlinehint nounwind uwtable
define internal i32 @_Py_MakeRecCheck(ptr noundef %0) #3 {
  %2 = alloca ptr, align 8
  store ptr %0, ptr %2, align 8, !tbaa !50
  %3 = load ptr, ptr %2, align 8, !tbaa !50
  %4 = getelementptr inbounds nuw %struct._ts, ptr %3, i32 0, i32 9
  %5 = load i32, ptr %4, align 4, !tbaa !146
  %6 = add i32 %5, -1
  store i32 %6, ptr %4, align 4, !tbaa !146
  %7 = icmp slt i32 %5, 0
  %8 = zext i1 %7 to i32
  ret i32 %8
}

; Function Attrs: inlinehint nounwind uwtable
define internal void @_Py_LeaveRecursiveCallTstate(ptr noundef %0) #3 {
  %2 = alloca ptr, align 8
  store ptr %0, ptr %2, align 8, !tbaa !50
  %3 = load ptr, ptr %2, align 8, !tbaa !50
  %4 = getelementptr inbounds nuw %struct._ts, ptr %3, i32 0, i32 9
  %5 = load i32, ptr %4, align 4, !tbaa !146
  %6 = add i32 %5, 1
  store i32 %6, ptr %4, align 4, !tbaa !146
  ret void
}

; Function Attrs: inlinehint nounwind uwtable
define internal i32 @_Py_EnterRecursiveCallTstate(ptr noundef %0, ptr noundef %1) #3 {
  %3 = alloca ptr, align 8
  %4 = alloca ptr, align 8
  store ptr %0, ptr %3, align 8, !tbaa !50
  store ptr %1, ptr %4, align 8, !tbaa !52
  %5 = load ptr, ptr %3, align 8, !tbaa !50
  %6 = call i32 @_Py_MakeRecCheck(ptr noundef %5)
  %7 = icmp ne i32 %6, 0
  br i1 %7, label %8, label %13

8:                                                ; preds = %2
  %9 = load ptr, ptr %3, align 8, !tbaa !50
  %10 = load ptr, ptr %4, align 8, !tbaa !52
  %11 = call i32 @_Py_CheckRecursiveCall(ptr noundef %9, ptr noundef %10)
  %12 = icmp ne i32 %11, 0
  br label %13

13:                                               ; preds = %8, %2
  %14 = phi i1 [ false, %2 ], [ %12, %8 ]
  %15 = zext i1 %14 to i32
  ret i32 %15
}

; Function Attrs: inlinehint nounwind uwtable
define internal void @_Py_LeaveRecursiveCall() #3 {
  %1 = alloca ptr, align 8
  call void @llvm.lifetime.start.p0(i64 8, ptr %1) #6
  %2 = call ptr @_PyThreadState_GET()
  store ptr %2, ptr %1, align 8, !tbaa !50
  %3 = load ptr, ptr %1, align 8, !tbaa !50
  call void @_Py_LeaveRecursiveCallTstate(ptr noundef %3)
  call void @llvm.lifetime.end.p0(i64 8, ptr %1) #6
  ret void
}

; Function Attrs: inlinehint nounwind uwtable
define internal ptr @method_enter_call(ptr noundef %0, ptr noundef %1) #3 {
  %3 = alloca ptr, align 8
  %4 = alloca ptr, align 8
  %5 = alloca ptr, align 8
  store ptr %0, ptr %4, align 8, !tbaa !50
  store ptr %1, ptr %5, align 8, !tbaa !4
  %6 = load ptr, ptr %4, align 8, !tbaa !50
  %7 = call i32 @_Py_EnterRecursiveCallTstate(ptr noundef %6, ptr noundef @.str.42)
  %8 = icmp ne i32 %7, 0
  br i1 %8, label %9, label %10

9:                                                ; preds = %2
  store ptr null, ptr %3, align 8
  br label %16

10:                                               ; preds = %2
  %11 = load ptr, ptr %5, align 8, !tbaa !4
  %12 = getelementptr inbounds nuw %struct.PyMethodDescrObject, ptr %11, i32 0, i32 1
  %13 = load ptr, ptr %12, align 8, !tbaa !18
  %14 = getelementptr inbounds nuw %struct.PyMethodDef, ptr %13, i32 0, i32 1
  %15 = load ptr, ptr %14, align 8, !tbaa !172
  store ptr %15, ptr %3, align 8
  br label %16

16:                                               ; preds = %10, %9
  %17 = load ptr, ptr %3, align 8
  ret ptr %17
}

; Function Attrs: inlinehint nounwind uwtable
define internal i64 @_PyVectorcall_NARGS(i64 noundef %0) #3 {
  %2 = alloca i64, align 8
  store i64 %0, ptr %2, align 8, !tbaa !32
  %3 = load i64, ptr %2, align 8, !tbaa !32
  %4 = and i64 %3, 9223372036854775807
  ret i64 %4
}

; Function Attrs: inlinehint nounwind uwtable
define internal ptr @_PyThreadState_GET() #3 {
  %1 = call align 8 ptr @llvm.threadlocal.address.p0(ptr align 8 @_Py_tss_tstate)
  %2 = load ptr, ptr %1, align 8, !tbaa !50
  ret ptr %2
}

; Function Attrs: nounwind uwtable
define internal ptr @method_vectorcall_FASTCALL_KEYWORDS_METHOD(ptr noundef %0, ptr noundef %1, i64 noundef %2, ptr noundef %3) #0 {
  %5 = alloca ptr, align 8
  %6 = alloca ptr, align 8
  %7 = alloca ptr, align 8
  %8 = alloca i64, align 8
  %9 = alloca ptr, align 8
  %10 = alloca ptr, align 8
  %11 = alloca i64, align 8
  %12 = alloca i32, align 4
  %13 = alloca ptr, align 8
  %14 = alloca ptr, align 8
  store ptr %0, ptr %6, align 8, !tbaa !4
  store ptr %1, ptr %7, align 8, !tbaa !48
  store i64 %2, ptr %8, align 8, !tbaa !32
  store ptr %3, ptr %9, align 8, !tbaa !4
  call void @llvm.lifetime.start.p0(i64 8, ptr %10) #6
  %15 = call ptr @_PyThreadState_GET()
  store ptr %15, ptr %10, align 8, !tbaa !50
  call void @llvm.lifetime.start.p0(i64 8, ptr %11) #6
  %16 = load i64, ptr %8, align 8, !tbaa !32
  %17 = call i64 @_PyVectorcall_NARGS(i64 noundef %16)
  store i64 %17, ptr %11, align 8, !tbaa !32
  %18 = load ptr, ptr %6, align 8, !tbaa !4
  %19 = load ptr, ptr %7, align 8, !tbaa !48
  %20 = load i64, ptr %11, align 8, !tbaa !32
  %21 = call i32 @method_check_args(ptr noundef %18, ptr noundef %19, i64 noundef %20, ptr noundef null)
  %22 = icmp ne i32 %21, 0
  br i1 %22, label %23, label %24

23:                                               ; preds = %4
  store ptr null, ptr %5, align 8
  store i32 1, ptr %12, align 4
  br label %48

24:                                               ; preds = %4
  call void @llvm.lifetime.start.p0(i64 8, ptr %13) #6
  %25 = load ptr, ptr %10, align 8, !tbaa !50
  %26 = load ptr, ptr %6, align 8, !tbaa !4
  %27 = call ptr @method_enter_call(ptr noundef %25, ptr noundef %26)
  store ptr %27, ptr %13, align 8, !tbaa !9
  %28 = load ptr, ptr %13, align 8, !tbaa !9
  %29 = icmp eq ptr %28, null
  br i1 %29, label %30, label %31

30:                                               ; preds = %24
  store ptr null, ptr %5, align 8
  store i32 1, ptr %12, align 4
  br label %47

31:                                               ; preds = %24
  call void @llvm.lifetime.start.p0(i64 8, ptr %14) #6
  %32 = load ptr, ptr %13, align 8, !tbaa !9
  %33 = load ptr, ptr %7, align 8, !tbaa !48
  %34 = getelementptr ptr, ptr %33, i64 0
  %35 = load ptr, ptr %34, align 8, !tbaa !4
  %36 = load ptr, ptr %6, align 8, !tbaa !4
  %37 = getelementptr inbounds nuw %struct.PyMethodDescrObject, ptr %36, i32 0, i32 0
  %38 = getelementptr inbounds nuw %struct.PyDescrObject, ptr %37, i32 0, i32 1
  %39 = load ptr, ptr %38, align 8, !tbaa !24
  %40 = load ptr, ptr %7, align 8, !tbaa !48
  %41 = getelementptr ptr, ptr %40, i64 1
  %42 = load i64, ptr %11, align 8, !tbaa !32
  %43 = sub i64 %42, 1
  %44 = load ptr, ptr %9, align 8, !tbaa !4
  %45 = call ptr %32(ptr noundef %35, ptr noundef %39, ptr noundef %41, i64 noundef %43, ptr noundef %44)
  store ptr %45, ptr %14, align 8, !tbaa !4
  call void @_Py_LeaveRecursiveCall()
  %46 = load ptr, ptr %14, align 8, !tbaa !4
  store ptr %46, ptr %5, align 8
  store i32 1, ptr %12, align 4
  call void @llvm.lifetime.end.p0(i64 8, ptr %14) #6
  br label %47

47:                                               ; preds = %31, %30
  call void @llvm.lifetime.end.p0(i64 8, ptr %13) #6
  br label %48

48:                                               ; preds = %47, %23
  call void @llvm.lifetime.end.p0(i64 8, ptr %11) #6
  call void @llvm.lifetime.end.p0(i64 8, ptr %10) #6
  %49 = load ptr, ptr %5, align 8
  ret ptr %49
}